; Function Attrs: nounwind uwtable
define hidden void @zif_xml_set_default_handler(ptr nocapture noundef readonly %0, ptr nocapture noundef writeonly %1) #0 {
  %3 = alloca ptr, align 8
  %4 = alloca %struct._zend_fcall_info_cache, align 8
  store ptr null, ptr %3, align 8
  call void @llvm.memset.p0.i64(ptr noundef nonnull align 8 dereferenceable(40) %4, i8 0, i64 40, i1 false)
  call fastcc void @php_xml_set_handler_parse_callable(ptr noundef %0, ptr noundef nonnull %3, ptr noundef nonnull %4)
  %5 = load ptr, ptr getelementptr inbounds (%struct._zend_executor_globals, ptr @executor_globals, i64 0, i32 50), align 8
  %.not = icmp eq ptr %5, null
  br i1 %.not, label %6, label %11

6:                                                ; preds = %2
  %7 = load ptr, ptr %3, align 8, !nonnull !4, !noundef !4
  %8 = getelementptr inbounds i8, ptr %7, i64 200
  call fastcc void @xml_set_handler(ptr noundef nonnull %8, ptr noundef nonnull %4)
  %9 = load ptr, ptr %7, align 8
  tail call void @php_XML_SetDefaultHandler(ptr noundef %9, ptr noundef nonnull @_xml_defaultHandler) #16
  %10 = getelementptr inbounds i8, ptr %1, i64 8
  store i32 3, ptr %10, align 8
  br label %11

11:                                               ; preds = %2, %6
  ret void
}